; Function Attrs: nounwind uwtable
define hidden void @zim_DateTimeImmutable___wakeup(ptr nocapture noundef readonly %0, ptr nocapture readnone %1) #0 {
  %3 = alloca ptr, align 8
  %4 = getelementptr inbounds i8, ptr %0, i64 44
  %5 = load i32, ptr %4, align 4
  %.not = icmp eq i32 %5, 0
  br i1 %.not, label %7, label %6

6:                                                ; preds = %2
  tail call void @zend_wrong_parameters_none_error() #25
  br label %18

7:                                                ; preds = %2
  %8 = getelementptr inbounds i8, ptr %0, i64 32
  %9 = load ptr, ptr %8, align 8
  %10 = getelementptr inbounds i8, ptr %9, i64 -8
  store ptr %10, ptr %3, align 8
  %11 = getelementptr inbounds i8, ptr %9, i64 24
  %12 = load ptr, ptr %11, align 8
  %13 = getelementptr inbounds i8, ptr %12, i64 104
  %14 = load ptr, ptr %13, align 8
  %15 = tail call ptr %14(ptr noundef %9) #25
  %16 = call fastcc zeroext i1 @php_date_initialize_from_hash(ptr noundef nonnull %3, ptr noundef %15)
  br i1 %16, label %18, label %17

17:                                               ; preds = %7
  tail call void (ptr, ptr, ...) @zend_throw_error(ptr noundef null, ptr noundef nonnull @.str.42) #25
  br label %18

18:                                               ; preds = %17, %7, %6
  ret void
}